target datalayout = "e-m:e-p270:32:32-p271:32:32-p272:64:64-i64:64-i128:128-f80:128-n8:16:32:64-S128"
target triple = "x86_64-pc-linux-gnu"

@opt_verbosity = internal global i32 6, align 4
@.str.351 = private unnamed_addr constant [22 x i8] c"../openssl/apps/cmp.c\00", align 1
@.str.353 = private unnamed_addr constant [1 x i8] zeroinitializer, align 1
@bio_out = external global ptr, align 8
@.str.363 = private unnamed_addr constant [8 x i8] c"warning\00", align 1
@.str.405 = private unnamed_addr constant [75 x i8] c"%s:%s:%d:CMP %s: %s option argument is empty string, resetting option%s%s\0A\00", align 1
@__func__.opt_str = private unnamed_addr constant [8 x i8] c"opt_str\00", align 1
@.str.406 = private unnamed_addr constant [60 x i8] c"%s:%s:%d:CMP %s: %s option argument starts with hyphen%s%s\0A\00", align 1

; Function Attrs: nounwind uwtable
define internal ptr @opt_str() #0 {
  %1 = alloca ptr, align 8
  call void @llvm.lifetime.start.p0(i64 8, ptr %1) #11
  %2 = call ptr @opt_arg()
  store ptr %2, ptr %1, align 8, !tbaa !11
  %3 = load ptr, ptr %1, align 8, !tbaa !11
  %4 = getelementptr inbounds i8, ptr %3, i64 0
  %5 = load i8, ptr %4, align 1, !tbaa !23
  %6 = sext i8 %5 to i32
  %7 = icmp eq i32 %6, 0
  br i1 %7, label %8, label %17

8:                                                ; preds = %0
  %9 = load i32, ptr @opt_verbosity, align 4, !tbaa !4
  %10 = icmp sgt i32 4, %9
  br i1 %10, label %11, label %12

11:                                               ; preds = %8
  br label %16

12:                                               ; preds = %8
  %13 = load ptr, ptr @bio_out, align 8, !tbaa !21
  %14 = call ptr @opt_flag()
  %15 = call i32 (ptr, ptr, ...) @BIO_printf(ptr noundef %13, ptr noundef @.str.405, ptr noundef @__func__.opt_str, ptr noundef @.str.351, i32 noundef 2787, ptr noundef @.str.363, ptr noundef %14, ptr noundef @.str.353, ptr noundef @.str.353)
  br label %16

16:                                               ; preds = %12, %11
  store ptr null, ptr %1, align 8, !tbaa !11
  br label %33

17:                                               ; preds = %0
  %18 = load ptr, ptr %1, align 8, !tbaa !11
  %19 = getelementptr inbounds i8, ptr %18, i64 0
  %20 = load i8, ptr %19, align 1, !tbaa !23
  %21 = sext i8 %20 to i32
  %22 = icmp eq i32 %21, 45
  br i1 %22, label %23, label %32

23:                                               ; preds = %17
  %24 = load i32, ptr @opt_verbosity, align 4, !tbaa !4
  %25 = icmp sgt i32 4, %24
  br i1 %25, label %26, label %27

26:                                               ; preds = %23
  br label %31

27:                                               ; preds = %23
  %28 = load ptr, ptr @bio_out, align 8, !tbaa !21
  %29 = call ptr @opt_flag()
  %30 = call i32 (ptr, ptr, ...) @BIO_printf(ptr noundef %28, ptr noundef @.str.406, ptr noundef @__func__.opt_str, ptr noundef @.str.351, i32 noundef 2790, ptr noundef @.str.363, ptr noundef %29, ptr noundef @.str.353, ptr noundef @.str.353)
  br label %31

31:                                               ; preds = %27, %26
  br label %32

32:                                               ; preds = %31, %17
  br label %33

33:                                               ; preds = %32, %16
  %34 = load ptr, ptr %1, align 8, !tbaa !11
  call void @llvm.lifetime.end.p0(i64 8, ptr %1) #11
  ret ptr %34
}