; Function Attrs: nounwind uwtable
define internal fastcc noundef ptr @opt_str() unnamed_addr #0 {
  %1 = tail call ptr @opt_arg() #12
  %2 = load i8, ptr %1, align 1, !tbaa !9
  %3 = icmp eq i8 %2, 0
  br i1 %3, label %4, label %11

4:                                                ; preds = %0
  %5 = load i32, ptr @opt_verbosity, align 4, !tbaa !10
  %6 = icmp slt i32 %5, 4
  br i1 %6, label %19, label %7

7:                                                ; preds = %4
  %8 = load ptr, ptr @bio_out, align 8, !tbaa !12
  %9 = tail call ptr @opt_flag() #12
  %10 = tail call i32 (ptr, ptr, ...) @BIO_printf(ptr noundef %8, ptr noundef nonnull @.str.405, ptr noundef nonnull @__func__.opt_str, ptr noundef nonnull @.str.351, i32 noundef 2787, ptr noundef nonnull @.str.363, ptr noundef %9, ptr noundef nonnull @.str.353, ptr noundef nonnull @.str.353) #12
  br label %19

11:                                               ; preds = %0
  %12 = icmp ne i8 %2, 45
  %13 = load i32, ptr @opt_verbosity, align 4
  %14 = icmp slt i32 %13, 4
  %or.cond = select i1 %12, i1 true, i1 %14
  br i1 %or.cond, label %19, label %15

15:                                               ; preds = %11
  %16 = load ptr, ptr @bio_out, align 8, !tbaa !12
  %17 = tail call ptr @opt_flag() #12
  %18 = tail call i32 (ptr, ptr, ...) @BIO_printf(ptr noundef %16, ptr noundef nonnull @.str.406, ptr noundef nonnull @__func__.opt_str, ptr noundef nonnull @.str.351, i32 noundef 2790, ptr noundef nonnull @.str.363, ptr noundef %17, ptr noundef nonnull @.str.353, ptr noundef nonnull @.str.353) #12
  br label %19

19:                                               ; preds = %7, %4, %11, %15
  %.0 = phi ptr [ %1, %11 ], [ %1, %15 ], [ null, %4 ], [ null, %7 ]
  ret ptr %.0
}